; Function Attrs: nounwind uwtable
define internal ptr @socket_CMSG_LEN(ptr readnone captures(none) %0, ptr noundef %1) #0 {
  %3 = alloca i64, align 8
  call void @llvm.lifetime.start.p0(i64 8, ptr nonnull %3) #13
  %4 = call i32 (ptr, ptr, ...) @PyArg_ParseTuple(ptr noundef %1, ptr noundef nonnull @.str.120, ptr noundef nonnull %3) #13
  %.not = icmp eq i32 %4, 0
  br i1 %.not, label %12, label %5

5:                                                ; preds = %2
  %6 = load i64, ptr %3, align 8, !tbaa !47
  %or.cond = icmp ugt i64 %6, 2147483631
  br i1 %or.cond, label %get_CMSG_LEN.exit.thread, label %9

get_CMSG_LEN.exit.thread:                         ; preds = %5
  %7 = load ptr, ptr @PyExc_OverflowError, align 8, !tbaa !19
  %8 = call ptr (ptr, ptr, ...) @PyErr_Format(ptr noundef %7, ptr noundef nonnull @.str.121) #13
  br label %12

9:                                                ; preds = %5
  %10 = add nuw nsw i64 %6, 16
  %11 = call ptr @PyLong_FromSize_t(i64 noundef %10) #13
  br label %12

12:                                               ; preds = %2, %9, %get_CMSG_LEN.exit.thread
  %.0 = phi ptr [ null, %get_CMSG_LEN.exit.thread ], [ %11, %9 ], [ null, %2 ]
  call void @llvm.lifetime.end.p0(i64 8, ptr nonnull %3) #13
  ret ptr %.0
}